; Function Attrs: nounwind uwtable
define internal noundef i32 @lj_cf_ffi_sizeof(ptr noundef %0) #0 {
  %2 = alloca i32, align 4
  %3 = alloca %struct.CPState, align 8
  %4 = getelementptr inbounds nuw i8, ptr %0, i64 16
  %5 = load i64, ptr %4, align 8, !tbaa !24
  %6 = inttoptr i64 %5 to ptr
  %7 = getelementptr inbounds nuw i8, ptr %6, i64 384
  %8 = load i64, ptr %7, align 8, !tbaa !41
  %9 = inttoptr i64 %8 to ptr
  %10 = getelementptr inbounds nuw i8, ptr %9, i64 16
  store ptr %0, ptr %10, align 8, !tbaa !42
  %11 = getelementptr inbounds nuw i8, ptr %0, i64 32
  %12 = load ptr, ptr %11, align 8, !tbaa !44
  %13 = getelementptr inbounds nuw i8, ptr %0, i64 40
  %14 = load ptr, ptr %13, align 8, !tbaa !4
  %15 = icmp ult ptr %12, %14
  br i1 %15, label %17, label %16

16:                                               ; preds = %17, %1
  tail call void @lj_err_argtype(ptr noundef nonnull %0, i32 noundef 1, ptr noundef nonnull @.str.4) #10
  unreachable

17:                                               ; preds = %1
  %18 = load i64, ptr %12, align 8, !tbaa !23
  %19 = ashr i64 %18, 47
  switch i64 %19, label %16 [
    i64 -5, label %20
    i64 -11, label %35
  ]

20:                                               ; preds = %17
  %21 = and i64 %18, 140737488355327
  %22 = inttoptr i64 %21 to ptr
  call void @llvm.lifetime.start.p0(i64 128, ptr nonnull %3) #9
  %23 = getelementptr inbounds nuw i8, ptr %3, i64 72
  store ptr %0, ptr %23, align 8, !tbaa !60
  %24 = getelementptr inbounds nuw i8, ptr %3, i64 80
  store ptr %9, ptr %24, align 8, !tbaa !65
  %25 = getelementptr inbounds nuw i8, ptr %22, i64 24
  %26 = getelementptr inbounds nuw i8, ptr %3, i64 96
  store ptr %25, ptr %26, align 8, !tbaa !66
  %27 = getelementptr inbounds nuw i8, ptr %3, i64 32
  store ptr %25, ptr %27, align 8, !tbaa !67
  %28 = getelementptr inbounds nuw i8, ptr %3, i64 88
  store ptr null, ptr %28, align 8, !tbaa !68
  %29 = getelementptr inbounds nuw i8, ptr %3, i64 116
  store i32 18, ptr %29, align 4, !tbaa !69
  %30 = call i32 @lj_cparse(ptr noundef nonnull %3) #9
  %.not32.i = icmp eq i32 %30, 0
  br i1 %.not32.i, label %32, label %31

31:                                               ; preds = %20
  call void @lj_err_throw(ptr noundef nonnull %0, i32 noundef %30) #10
  unreachable

32:                                               ; preds = %20
  %33 = getelementptr inbounds nuw i8, ptr %3, i64 12
  %34 = load i32, ptr %33, align 4, !tbaa !70
  call void @llvm.lifetime.end.p0(i64 128, ptr nonnull %3) #9
  %.pre = load ptr, ptr %11, align 8, !tbaa !44
  %.pre26 = load i64, ptr %.pre, align 8, !tbaa !23
  br label %ffi_checkctype.exit

35:                                               ; preds = %17
  %36 = and i64 %18, 140737488355327
  %37 = inttoptr i64 %36 to ptr
  %38 = getelementptr inbounds nuw i8, ptr %37, i64 10
  %39 = load i16, ptr %38, align 2, !tbaa !48
  %40 = icmp eq i16 %39, 22
  br i1 %40, label %41, label %44

41:                                               ; preds = %35
  %42 = getelementptr inbounds nuw i8, ptr %37, i64 16
  %43 = load i32, ptr %42, align 4, !tbaa !43
  br label %ffi_checkctype.exit

44:                                               ; preds = %35
  %45 = zext i16 %39 to i32
  br label %ffi_checkctype.exit

ffi_checkctype.exit:                              ; preds = %32, %41, %44
  %46 = phi i64 [ %.pre26, %32 ], [ %18, %44 ], [ %18, %41 ]
  %.0.i = phi i32 [ %34, %32 ], [ %45, %44 ], [ %43, %41 ]
  %.mask = and i64 %46, -140737488355328
  %47 = icmp eq i64 %.mask, -1548112371908608
  br i1 %47, label %48, label %.critedge

48:                                               ; preds = %ffi_checkctype.exit
  %49 = and i64 %46, 140737488355327
  %50 = inttoptr i64 %49 to ptr
  %51 = getelementptr inbounds nuw i8, ptr %50, i64 8
  %52 = load i8, ptr %51, align 8, !tbaa !23
  %53 = icmp slt i8 %52, 0
  br i1 %53, label %54, label %.critedge, !prof !84

54:                                               ; preds = %48
  %55 = getelementptr inbounds i8, ptr %50, i64 -4
  %56 = load i32, ptr %55, align 4, !tbaa !85
  br label %.critedge23

.critedge:                                        ; preds = %ffi_checkctype.exit, %48
  %57 = call ptr @lj_ctype_rawref(ptr noundef nonnull %9, i32 noundef %.0.i) #9
  %58 = load i32, ptr %57, align 8, !tbaa !52
  %59 = and i32 %58, -804257792
  %60 = icmp eq i32 %59, 269484032
  br i1 %60, label %61, label %76

61:                                               ; preds = %.critedge
  %62 = load i64, ptr %4, align 8, !tbaa !24
  %63 = inttoptr i64 %62 to ptr
  %64 = getelementptr inbounds nuw i8, ptr %63, i64 384
  %65 = load i64, ptr %64, align 8, !tbaa !41
  %66 = inttoptr i64 %65 to ptr
  %67 = getelementptr inbounds nuw i8, ptr %66, i64 16
  store ptr %0, ptr %67, align 8, !tbaa !42
  %68 = load ptr, ptr %11, align 8, !tbaa !44
  %69 = getelementptr inbounds nuw i8, ptr %68, i64 8
  call void @llvm.lifetime.start.p0(i64 4, ptr nonnull %2) #9
  %70 = load ptr, ptr %13, align 8, !tbaa !4
  %.not.i = icmp ult ptr %69, %70
  br i1 %.not.i, label %ffi_checkint.exit, label %71

71:                                               ; preds = %61
  call void @lj_err_arg(ptr noundef nonnull %0, i32 noundef 2, i32 noundef 551) #10
  unreachable

ffi_checkint.exit:                                ; preds = %61
  %72 = load ptr, ptr %66, align 8, !tbaa !51
  %73 = getelementptr inbounds nuw i8, ptr %72, i64 216
  call void @lj_cconv_ct_tv(ptr noundef nonnull %66, ptr noundef nonnull %73, ptr noundef nonnull %2, ptr noundef nonnull %69, i32 noundef 512) #9
  %74 = load i32, ptr %2, align 4, !tbaa !43
  call void @llvm.lifetime.end.p0(i64 4, ptr nonnull %2) #9
  %75 = call i32 @lj_ctype_vlsize(ptr noundef nonnull %9, ptr noundef nonnull %57, i32 noundef %74) #9
  br label %81

76:                                               ; preds = %.critedge
  %77 = icmp ult i32 %58, 1610612736
  br i1 %77, label %78, label %.thread

78:                                               ; preds = %76
  %79 = getelementptr inbounds nuw i8, ptr %57, i64 4
  %80 = load i32, ptr %79, align 4, !tbaa !58
  br label %81

81:                                               ; preds = %78, %ffi_checkint.exit
  %.121 = phi i32 [ %75, %ffi_checkint.exit ], [ %80, %78 ]
  %.not = icmp eq i32 %.121, -1
  br i1 %.not, label %.thread, label %.critedge23, !prof !87

.thread:                                          ; preds = %76, %81
  %82 = load ptr, ptr %13, align 8, !tbaa !4
  %83 = getelementptr inbounds i8, ptr %82, i64 -8
  store i64 -1, ptr %83, align 8, !tbaa !23
  br label %87

.critedge23:                                      ; preds = %81, %54
  %.020 = phi i32 [ %56, %54 ], [ %.121, %81 ]
  %84 = load ptr, ptr %13, align 8, !tbaa !4
  %85 = getelementptr inbounds i8, ptr %84, i64 -8
  %86 = sitofp i32 %.020 to double
  store double %86, ptr %85, align 8, !tbaa !23
  br label %87

87:                                               ; preds = %.thread, %.critedge23
  ret i32 1
}